target datalayout = "e-m:e-p270:32:32-p271:32:32-p272:64:64-i64:64-i128:128-f80:128-n8:16:32:64-S128"
target triple = "x86_64-pc-linux-gnu"

; Function Attrs: mustprogress uwtable
define internal void @_ZL23fstWriterSetAttrGenericPvPKcim(ptr noundef %0, ptr noundef %1, i32 noundef %2, i64 noundef %3) #0 {
  %5 = alloca ptr, align 8
  %6 = alloca ptr, align 8
  %7 = alloca i32, align 4
  %8 = alloca i64, align 8
  %9 = alloca ptr, align 8
  %10 = alloca ptr, align 8
  %11 = alloca ptr, align 8
  store ptr %0, ptr %5, align 8, !tbaa !50
  store ptr %1, ptr %6, align 8, !tbaa !6
  store i32 %2, ptr %7, align 4, !tbaa !11
  store i64 %3, ptr %8, align 8, !tbaa !35
  call void @llvm.lifetime.start.p0(i64 8, ptr %9) #15
  %12 = load ptr, ptr %5, align 8, !tbaa !50
  store ptr %12, ptr %9, align 8, !tbaa !13
  %13 = load ptr, ptr %9, align 8, !tbaa !13
  %14 = icmp ne ptr %13, null
  br i1 %14, label %15, label %47

15:                                               ; preds = %4
  %16 = load ptr, ptr %6, align 8, !tbaa !6
  %17 = icmp ne ptr %16, null
  br i1 %17, label %18, label %47

18:                                               ; preds = %15
  call void @llvm.lifetime.start.p0(i64 8, ptr %10) #15
  %19 = load ptr, ptr %6, align 8, !tbaa !6
  %20 = call noalias ptr @strdup(ptr noundef %19) #15
  store ptr %20, ptr %10, align 8, !tbaa !6
  call void @llvm.lifetime.start.p0(i64 8, ptr %11) #15
  %21 = load ptr, ptr %10, align 8, !tbaa !6
  store ptr %21, ptr %11, align 8, !tbaa !6
  br label %22

22:                                               ; preds = %38, %18
  %23 = load ptr, ptr %10, align 8, !tbaa !6
  %24 = load i8, ptr %23, align 1, !tbaa !34
  %25 = icmp ne i8 %24, 0
  br i1 %25, label %26, label %41

26:                                               ; preds = %22
  %27 = load ptr, ptr %10, align 8, !tbaa !6
  %28 = load i8, ptr %27, align 1, !tbaa !34
  %29 = sext i8 %28 to i32
  %30 = icmp eq i32 %29, 10
  br i1 %30, label %36, label %31

31:                                               ; preds = %26
  %32 = load ptr, ptr %10, align 8, !tbaa !6
  %33 = load i8, ptr %32, align 1, !tbaa !34
  %34 = sext i8 %33 to i32
  %35 = icmp eq i32 %34, 13
  br i1 %35, label %36, label %38

36:                                               ; preds = %31, %26
  %37 = load ptr, ptr %10, align 8, !tbaa !6
  store i8 32, ptr %37, align 1, !tbaa !34
  br label %38

38:                                               ; preds = %36, %31
  %39 = load ptr, ptr %10, align 8, !tbaa !6
  %40 = getelementptr inbounds nuw i8, ptr %39, i32 1
  store ptr %40, ptr %10, align 8, !tbaa !6
  br label %22, !llvm.loop !110

41:                                               ; preds = %22
  %42 = load ptr, ptr %9, align 8, !tbaa !13
  %43 = load i32, ptr %7, align 4, !tbaa !11
  %44 = load ptr, ptr %11, align 8, !tbaa !6
  %45 = load i64, ptr %8, align 8, !tbaa !35
  call void @fstWriterSetAttrBegin(ptr noundef %42, i32 noundef 0, i32 noundef %43, ptr noundef %44, i64 noundef %45)
  %46 = load ptr, ptr %11, align 8, !tbaa !6
  call void @free(ptr noundef %46) #15
  call void @llvm.lifetime.end.p0(i64 8, ptr %11) #15
  call void @llvm.lifetime.end.p0(i64 8, ptr %10) #15
  br label %47

47:                                               ; preds = %41, %15, %4
  call void @llvm.lifetime.end.p0(i64 8, ptr %9) #15
  ret void
}

; Function Attrs: mustprogress uwtable
define void @fstWriterSetEnvVar(ptr noundef %0, ptr noundef %1) #0 {
  %3 = alloca ptr, align 8
  %4 = alloca ptr, align 8
  store ptr %0, ptr %3, align 8, !tbaa !50
  store ptr %1, ptr %4, align 8, !tbaa !6
  %5 = load ptr, ptr %3, align 8, !tbaa !50
  %6 = load ptr, ptr %4, align 8, !tbaa !6
  call void @_ZL23fstWriterSetAttrGenericPvPKcim(ptr noundef %5, ptr noundef %6, i32 noundef 1, i64 noundef 0)
  ret void
}