; Function Attrs: mustprogress nounwind uwtable
define void @fstWriterSetEnvVar(ptr noundef captures(address_is_null) %0, ptr noundef readonly captures(address_is_null) %1) local_unnamed_addr #0 {
  %3 = icmp ne ptr %0, null
  %4 = icmp ne ptr %1, null
  %or.cond.i = and i1 %3, %4
  br i1 %or.cond.i, label %5, label %_ZL23fstWriterSetAttrGenericPvPKcim.exit

5:                                                ; preds = %2
  %6 = tail call noalias ptr @strdup(ptr noundef nonnull readonly %1) #39
  br label %7

7:                                                ; preds = %10, %5
  %.0.i = phi ptr [ %6, %5 ], [ %11, %10 ]
  %8 = load i8, ptr %.0.i, align 1, !tbaa !6
  switch i8 %8, label %10 [
    i8 0, label %12
    i8 10, label %9
    i8 13, label %9
  ]

9:                                                ; preds = %7, %7
  store i8 32, ptr %.0.i, align 1, !tbaa !6
  br label %10

10:                                               ; preds = %9, %7
  %11 = getelementptr inbounds nuw i8, ptr %.0.i, i64 1
  br label %7, !llvm.loop !104

12:                                               ; preds = %7
  tail call void @fstWriterSetAttrBegin(ptr noundef nonnull %0, i32 noundef 0, i32 noundef 1, ptr noundef %6, i64 noundef 0)
  tail call void @free(ptr noundef %6) #39
  br label %_ZL23fstWriterSetAttrGenericPvPKcim.exit

_ZL23fstWriterSetAttrGenericPvPKcim.exit:         ; preds = %2, %12
  ret void
}